; Function Attrs: mustprogress uwtable
define internal noundef i32 @_ZN4LuauL13isEqualToTypeEP9lua_State(ptr noundef %0) #2 personality ptr @__gxx_personality_v0 {
  %2 = alloca %"class.std::set", align 8
  %3 = tail call noundef i32 @_Z10lua_gettopP9lua_State(ptr noundef %0)
  %.not = icmp eq i32 %3, 2
  br i1 %.not, label %5, label %4

4:                                                ; preds = %1
  tail call void (ptr, ptr, ...) @_Z11luaL_errorLP9lua_StatePKcz(ptr noundef %0, ptr noundef nonnull @.str.222, i32 noundef %3) #29
  unreachable

5:                                                ; preds = %1
  %6 = tail call noundef ptr @_Z20lua_touserdatataggedP9lua_Stateii(ptr noundef %0, i32 noundef 1, i32 noundef 42)
  %.not.not.i = icmp eq ptr %6, null
  br i1 %.not.not.i, label %7, label %_ZN4Luau15getTypeUserDataEP9lua_Statei.exit

7:                                                ; preds = %5
  tail call void @_Z15luaL_typeerrorLP9lua_StateiPKc(ptr noundef %0, i32 noundef 1, ptr noundef nonnull @.str.67) #29
  unreachable

_ZN4Luau15getTypeUserDataEP9lua_Statei.exit:      ; preds = %5
  %8 = load ptr, ptr %6, align 8, !tbaa !29
  %9 = tail call noundef ptr @_Z20lua_touserdatataggedP9lua_Stateii(ptr noundef %0, i32 noundef 2, i32 noundef 42)
  %.not.not.i8 = icmp eq ptr %9, null
  br i1 %.not.not.i8, label %10, label %_ZN4Luau15getTypeUserDataEP9lua_Statei.exit9

10:                                               ; preds = %_ZN4Luau15getTypeUserDataEP9lua_Statei.exit
  tail call void @_Z15luaL_typeerrorLP9lua_StateiPKc(ptr noundef %0, i32 noundef 2, ptr noundef nonnull @.str.67) #29
  unreachable

_ZN4Luau15getTypeUserDataEP9lua_Statei.exit9:     ; preds = %_ZN4Luau15getTypeUserDataEP9lua_Statei.exit
  %11 = load ptr, ptr %9, align 8, !tbaa !29
  call void @llvm.lifetime.start.p0(i64 48, ptr nonnull %2) #27
  %12 = getelementptr inbounds nuw i8, ptr %2, i64 8
  store i32 0, ptr %12, align 8, !tbaa !72
  %13 = getelementptr inbounds nuw i8, ptr %2, i64 16
  store ptr null, ptr %13, align 8, !tbaa !73
  %14 = getelementptr inbounds nuw i8, ptr %2, i64 24
  store ptr %12, ptr %14, align 8, !tbaa !64
  %15 = getelementptr inbounds nuw i8, ptr %2, i64 32
  store ptr %12, ptr %15, align 8, !tbaa !69
  %16 = getelementptr inbounds nuw i8, ptr %2, i64 40
  store i64 0, ptr %16, align 8, !tbaa !70
  %17 = invoke noundef zeroext i1 @_ZN4Luau8areEqualERSt3setISt4pairIPKvS3_ESt4lessIS4_ESaIS4_EERKNS_16TypeFunctionTypeESC_(ptr noundef nonnull align 8 dereferenceable(48) %2, ptr noundef nonnull align 8 dereferenceable(152) %8, ptr noundef nonnull align 8 dereferenceable(152) %11)
          to label %18 unwind label %23

18:                                               ; preds = %_ZN4Luau15getTypeUserDataEP9lua_Statei.exit9
  %19 = load ptr, ptr %13, align 8, !tbaa !73
  invoke void @_ZNSt8_Rb_treeISt4pairIPKvS2_ES3_St9_IdentityIS3_ESt4lessIS3_ESaIS3_EE8_M_eraseEPSt13_Rb_tree_nodeIS3_E(ptr noundef nonnull align 8 dereferenceable(48) %2, ptr noundef %19)
          to label %_ZNK4Luau16TypeFunctionTypeeqERKS0_.exit unwind label %20

20:                                               ; preds = %18
  %21 = landingpad { ptr, i32 }
          catch ptr null
  %22 = extractvalue { ptr, i32 } %21, 0
  call void @__clang_call_terminate(ptr %22) #28
  unreachable

23:                                               ; preds = %_ZN4Luau15getTypeUserDataEP9lua_Statei.exit9
  %24 = landingpad { ptr, i32 }
          cleanup
  call void @_ZNSt3setISt4pairIPKvS2_ESt4lessIS3_ESaIS3_EED2Ev(ptr noundef nonnull align 8 dereferenceable(48) %2) #27
  call void @llvm.lifetime.end.p0(i64 48, ptr nonnull %2) #27
  resume { ptr, i32 } %24

_ZNK4Luau16TypeFunctionTypeeqERKS0_.exit:         ; preds = %18
  call void @llvm.lifetime.end.p0(i64 48, ptr nonnull %2) #27
  %25 = zext i1 %17 to i32
  call void @_Z15lua_pushbooleanP9lua_Statei(ptr noundef %0, i32 noundef %25)
  ret i32 1
}